target datalayout = "e-m:e-p270:32:32-p271:32:32-p272:64:64-i64:64-i128:128-f80:128-n8:16:32:64-S128"
target triple = "x86_64-pc-linux-gnu"

%struct.object_id = type { [32 x i8], i32 }
%struct.object = type { i32, %struct.object_id }

@.str.24 = private unnamed_addr constant [24 x i8] c"no valid object to fsck\00", align 1

; Function Attrs: nounwind uwtable
define dso_local i32 @fsck_object(ptr noundef %0, ptr noundef %1, i64 noundef %2, ptr noundef %3) #0 {
  %5 = alloca i32, align 4
  %6 = alloca ptr, align 8
  %7 = alloca ptr, align 8
  %8 = alloca i64, align 8
  %9 = alloca ptr, align 8
  store ptr %0, ptr %6, align 8, !tbaa !87
  store ptr %1, ptr %7, align 8, !tbaa !33
  store i64 %2, ptr %8, align 8, !tbaa !35
  store ptr %3, ptr %9, align 8, !tbaa !24
  %10 = load ptr, ptr %6, align 8, !tbaa !87
  %11 = icmp ne ptr %10, null
  br i1 %11, label %15, label %12

12:                                               ; preds = %4
  %13 = load ptr, ptr %9, align 8, !tbaa !24
  %14 = call i32 (ptr, ptr, i32, i32, ptr, ...) @report(ptr noundef %13, ptr noundef null, i32 noundef 0, i32 noundef 6, ptr noundef @.str.24)
  store i32 %14, ptr %5, align 4
  br label %26

15:                                               ; preds = %4
  %16 = load ptr, ptr %6, align 8, !tbaa !87
  %17 = getelementptr inbounds nuw %struct.object, ptr %16, i32 0, i32 1
  %18 = load ptr, ptr %6, align 8, !tbaa !87
  %19 = load i32, ptr %18, align 4
  %20 = lshr i32 %19, 1
  %21 = and i32 %20, 7
  %22 = load ptr, ptr %7, align 8, !tbaa !33
  %23 = load i64, ptr %8, align 8, !tbaa !35
  %24 = load ptr, ptr %9, align 8, !tbaa !24
  %25 = call i32 @fsck_buffer(ptr noundef %17, i32 noundef %21, ptr noundef %22, i64 noundef %23, ptr noundef %24)
  store i32 %25, ptr %5, align 4
  br label %26

26:                                               ; preds = %15, %12
  %27 = load i32, ptr %5, align 4
  ret i32 %27
}