; Function Attrs: nounwind uwtable
define dso_local i32 @fsck_object(ptr noundef %0, ptr noundef %1, i64 noundef %2, ptr noundef %3) local_unnamed_addr #0 {
  %.not = icmp eq ptr %0, null
  br i1 %.not, label %5, label %7

5:                                                ; preds = %4
  %6 = tail call i32 (ptr, ptr, i32, i32, ptr, ...) @report(ptr noundef %3, ptr noundef null, i32 noundef 0, i32 noundef 6, ptr noundef nonnull @.str.24)
  br label %13

7:                                                ; preds = %4
  %8 = getelementptr inbounds nuw i8, ptr %0, i64 4
  %9 = load i32, ptr %0, align 4
  %10 = lshr i32 %9, 1
  %11 = and i32 %10, 7
  %12 = tail call i32 @fsck_buffer(ptr noundef nonnull %8, i32 noundef %11, ptr noundef %1, i64 noundef %2, ptr noundef %3)
  br label %13

13:                                               ; preds = %7, %5
  %.0 = phi i32 [ %12, %7 ], [ %6, %5 ]
  ret i32 %.0
}